target datalayout = "e-m:e-p270:32:32-p271:32:32-p272:64:64-i64:64-i128:128-f80:128-n8:16:32:64-S128"
target triple = "x86_64-pc-linux-gnu"

@.str.17 = private unnamed_addr constant [25 x i8] c"../openssl/test/bntest.c\00", align 1
@ctx = internal global ptr null, align 8
@.str.69 = private unnamed_addr constant [2 x i8] c"0\00", align 1
@.str.108 = private unnamed_addr constant [13 x i8] c"r = BN_new()\00", align 1
@.str.111 = private unnamed_addr constant [19 x i8] c"str = BN_bn2dec(r)\00", align 1
@.str.112 = private unnamed_addr constant [5 x i8] c"NULL\00", align 1
@.str.116 = private unnamed_addr constant [20 x i8] c"BN_dec2bn(&a, \2215\22)\00", align 1
@.str.117 = private unnamed_addr constant [3 x i8] c"15\00", align 1
@.str.118 = private unnamed_addr constant [20 x i8] c"BN_dec2bn(&b, \2210\22)\00", align 1
@.str.119 = private unnamed_addr constant [3 x i8] c"10\00", align 1
@.str.120 = private unnamed_addr constant [20 x i8] c"BN_dec2bn(&c, \2239\22)\00", align 1
@.str.121 = private unnamed_addr constant [3 x i8] c"39\00", align 1
@.str.122 = private unnamed_addr constant [66 x i8] c"(idx == 0 ? BN_mod_exp_simple : BN_mod_exp_recp)(r, a, b, c, ctx)\00", align 1
@.str.123 = private unnamed_addr constant [2 x i8] c"1\00", align 1
@.str.124 = private unnamed_addr constant [4 x i8] c"str\00", align 1
@.str.125 = private unnamed_addr constant [5 x i8] c"\2236\22\00", align 1
@.str.126 = private unnamed_addr constant [3 x i8] c"36\00", align 1
@.str.127 = private unnamed_addr constant [66 x i8] c"(idx == 0 ? BN_mod_exp_simple : BN_mod_exp_recp)(r, a, r, c, ctx)\00", align 1
@.str.128 = private unnamed_addr constant [35 x i8] c"BN_mod_exp_simple(c, a, b, c, ctx)\00", align 1
@.str.129 = private unnamed_addr constant [33 x i8] c"BN_mod_exp_recp(c, a, b, c, ctx)\00", align 1
@.str.130 = private unnamed_addr constant [19 x i8] c"str = BN_bn2dec(c)\00", align 1

; Function Attrs: nounwind uwtable
define internal i32 @test_mod_exp_alias(i32 noundef %0) #0 {
  %2 = alloca i32, align 4
  %3 = alloca i32, align 4
  %4 = alloca ptr, align 8
  %5 = alloca ptr, align 8
  %6 = alloca ptr, align 8
  %7 = alloca ptr, align 8
  %8 = alloca ptr, align 8
  store i32 %0, ptr %2, align 4, !tbaa !4
  call void @llvm.lifetime.start.p0(i64 4, ptr %3) #7
  store i32 0, ptr %3, align 4, !tbaa !4
  call void @llvm.lifetime.start.p0(i64 8, ptr %4) #7
  store ptr null, ptr %4, align 8, !tbaa !25
  call void @llvm.lifetime.start.p0(i64 8, ptr %5) #7
  store ptr null, ptr %5, align 8, !tbaa !13
  call void @llvm.lifetime.start.p0(i64 8, ptr %6) #7
  store ptr null, ptr %6, align 8, !tbaa !13
  call void @llvm.lifetime.start.p0(i64 8, ptr %7) #7
  store ptr null, ptr %7, align 8, !tbaa !13
  call void @llvm.lifetime.start.p0(i64 8, ptr %8) #7
  store ptr null, ptr %8, align 8, !tbaa !13
  %9 = call i32 @BN_dec2bn(ptr noundef %5, ptr noundef @.str.117)
  %10 = icmp ne i32 %9, 0
  %11 = zext i1 %10 to i32
  %12 = call i32 @test_true(ptr noundef @.str.17, i32 noundef 3219, ptr noundef @.str.116, i32 noundef %11)
  %13 = icmp ne i32 %12, 0
  br i1 %13, label %15, label %14

14:                                               ; preds = %1
  br label %124

15:                                               ; preds = %1
  %16 = call i32 @BN_dec2bn(ptr noundef %6, ptr noundef @.str.119)
  %17 = icmp ne i32 %16, 0
  %18 = zext i1 %17 to i32
  %19 = call i32 @test_true(ptr noundef @.str.17, i32 noundef 3221, ptr noundef @.str.118, i32 noundef %18)
  %20 = icmp ne i32 %19, 0
  br i1 %20, label %22, label %21

21:                                               ; preds = %15
  br label %124

22:                                               ; preds = %15
  %23 = call i32 @BN_dec2bn(ptr noundef %7, ptr noundef @.str.121)
  %24 = icmp ne i32 %23, 0
  %25 = zext i1 %24 to i32
  %26 = call i32 @test_true(ptr noundef @.str.17, i32 noundef 3223, ptr noundef @.str.120, i32 noundef %25)
  %27 = icmp ne i32 %26, 0
  br i1 %27, label %29, label %28

28:                                               ; preds = %22
  br label %124

29:                                               ; preds = %22
  %30 = call ptr @BN_new()
  store ptr %30, ptr %8, align 8, !tbaa !13
  %31 = call i32 @test_ptr(ptr noundef @.str.17, i32 noundef 3225, ptr noundef @.str.108, ptr noundef %30)
  %32 = icmp ne i32 %31, 0
  br i1 %32, label %34, label %33

33:                                               ; preds = %29
  br label %124

34:                                               ; preds = %29
  %35 = load i32, ptr %2, align 4, !tbaa !4
  %36 = icmp eq i32 %35, 0
  %37 = select i1 %36, ptr @BN_mod_exp_simple, ptr @BN_mod_exp_recp
  %38 = load ptr, ptr %8, align 8, !tbaa !13
  %39 = load ptr, ptr %5, align 8, !tbaa !13
  %40 = load ptr, ptr %6, align 8, !tbaa !13
  %41 = load ptr, ptr %7, align 8, !tbaa !13
  %42 = load ptr, ptr @ctx, align 8, !tbaa !10
  %43 = call i32 %37(ptr noundef %38, ptr noundef %39, ptr noundef %40, ptr noundef %41, ptr noundef %42)
  %44 = call i32 @test_int_eq(ptr noundef @.str.17, i32 noundef 3229, ptr noundef @.str.122, ptr noundef @.str.123, i32 noundef %43, i32 noundef 1)
  %45 = icmp ne i32 %44, 0
  br i1 %45, label %47, label %46

46:                                               ; preds = %34
  br label %124

47:                                               ; preds = %34
  %48 = load ptr, ptr %8, align 8, !tbaa !13
  %49 = call ptr @BN_bn2dec(ptr noundef %48)
  store ptr %49, ptr %4, align 8, !tbaa !25
  %50 = call i32 @test_ptr_ne(ptr noundef @.str.17, i32 noundef 3231, ptr noundef @.str.111, ptr noundef @.str.112, ptr noundef %49, ptr noundef null)
  %51 = icmp ne i32 %50, 0
  br i1 %51, label %53, label %52

52:                                               ; preds = %47
  br label %124

53:                                               ; preds = %47
  %54 = load ptr, ptr %4, align 8, !tbaa !25
  %55 = call i32 @test_str_eq(ptr noundef @.str.17, i32 noundef 3233, ptr noundef @.str.124, ptr noundef @.str.125, ptr noundef %54, ptr noundef @.str.126)
  %56 = icmp ne i32 %55, 0
  br i1 %56, label %58, label %57

57:                                               ; preds = %53
  br label %124

58:                                               ; preds = %53
  %59 = load ptr, ptr %4, align 8, !tbaa !25
  call void @CRYPTO_free(ptr noundef %59, ptr noundef @.str.17, i32 noundef 3236)
  store ptr null, ptr %4, align 8, !tbaa !25
  %60 = load ptr, ptr %8, align 8, !tbaa !13
  %61 = load ptr, ptr %6, align 8, !tbaa !13
  %62 = call ptr @BN_copy(ptr noundef %60, ptr noundef %61)
  %63 = load i32, ptr %2, align 4, !tbaa !4
  %64 = icmp eq i32 %63, 0
  %65 = select i1 %64, ptr @BN_mod_exp_simple, ptr @BN_mod_exp_recp
  %66 = load ptr, ptr %8, align 8, !tbaa !13
  %67 = load ptr, ptr %5, align 8, !tbaa !13
  %68 = load ptr, ptr %8, align 8, !tbaa !13
  %69 = load ptr, ptr %7, align 8, !tbaa !13
  %70 = load ptr, ptr @ctx, align 8, !tbaa !10
  %71 = call i32 %65(ptr noundef %66, ptr noundef %67, ptr noundef %68, ptr noundef %69, ptr noundef %70)
  %72 = call i32 @test_int_eq(ptr noundef @.str.17, i32 noundef 3243, ptr noundef @.str.127, ptr noundef @.str.123, i32 noundef %71, i32 noundef 1)
  %73 = icmp ne i32 %72, 0
  br i1 %73, label %75, label %74

74:                                               ; preds = %58
  br label %124

75:                                               ; preds = %58
  %76 = load ptr, ptr %8, align 8, !tbaa !13
  %77 = call ptr @BN_bn2dec(ptr noundef %76)
  store ptr %77, ptr %4, align 8, !tbaa !25
  %78 = call i32 @test_ptr_ne(ptr noundef @.str.17, i32 noundef 3245, ptr noundef @.str.111, ptr noundef @.str.112, ptr noundef %77, ptr noundef null)
  %79 = icmp ne i32 %78, 0
  br i1 %79, label %81, label %80

80:                                               ; preds = %75
  br label %124

81:                                               ; preds = %75
  %82 = load ptr, ptr %4, align 8, !tbaa !25
  %83 = call i32 @test_str_eq(ptr noundef @.str.17, i32 noundef 3247, ptr noundef @.str.124, ptr noundef @.str.125, ptr noundef %82, ptr noundef @.str.126)
  %84 = icmp ne i32 %83, 0
  br i1 %84, label %86, label %85

85:                                               ; preds = %81
  br label %124

86:                                               ; preds = %81
  %87 = load ptr, ptr %4, align 8, !tbaa !25
  call void @CRYPTO_free(ptr noundef %87, ptr noundef @.str.17, i32 noundef 3250)
  store ptr null, ptr %4, align 8, !tbaa !25
  %88 = load i32, ptr %2, align 4, !tbaa !4
  %89 = icmp eq i32 %88, 0
  br i1 %89, label %90, label %101

90:                                               ; preds = %86
  %91 = load ptr, ptr %7, align 8, !tbaa !13
  %92 = load ptr, ptr %5, align 8, !tbaa !13
  %93 = load ptr, ptr %6, align 8, !tbaa !13
  %94 = load ptr, ptr %7, align 8, !tbaa !13
  %95 = load ptr, ptr @ctx, align 8, !tbaa !10
  %96 = call i32 @BN_mod_exp_simple(ptr noundef %91, ptr noundef %92, ptr noundef %93, ptr noundef %94, ptr noundef %95)
  %97 = call i32 @test_int_eq(ptr noundef @.str.17, i32 noundef 3255, ptr noundef @.str.128, ptr noundef @.str.69, i32 noundef %96, i32 noundef 0)
  %98 = icmp ne i32 %97, 0
  br i1 %98, label %100, label %99

99:                                               ; preds = %90
  br label %124

100:                                              ; preds = %90
  br label %123

101:                                              ; preds = %86
  %102 = load ptr, ptr %7, align 8, !tbaa !13
  %103 = load ptr, ptr %5, align 8, !tbaa !13
  %104 = load ptr, ptr %6, align 8, !tbaa !13
  %105 = load ptr, ptr %7, align 8, !tbaa !13
  %106 = load ptr, ptr @ctx, align 8, !tbaa !10
  %107 = call i32 @BN_mod_exp_recp(ptr noundef %102, ptr noundef %103, ptr noundef %104, ptr noundef %105, ptr noundef %106)
  %108 = call i32 @test_int_eq(ptr noundef @.str.17, i32 noundef 3258, ptr noundef @.str.129, ptr noundef @.str.123, i32 noundef %107, i32 noundef 1)
  %109 = icmp ne i32 %108, 0
  br i1 %109, label %111, label %110

110:                                              ; preds = %101
  br label %124

111:                                              ; preds = %101
  %112 = load ptr, ptr %7, align 8, !tbaa !13
  %113 = call ptr @BN_bn2dec(ptr noundef %112)
  store ptr %113, ptr %4, align 8, !tbaa !25
  %114 = call i32 @test_ptr_ne(ptr noundef @.str.17, i32 noundef 3260, ptr noundef @.str.130, ptr noundef @.str.112, ptr noundef %113, ptr noundef null)
  %115 = icmp ne i32 %114, 0
  br i1 %115, label %117, label %116

116:                                              ; preds = %111
  br label %124

117:                                              ; preds = %111
  %118 = load ptr, ptr %4, align 8, !tbaa !25
  %119 = call i32 @test_str_eq(ptr noundef @.str.17, i32 noundef 3262, ptr noundef @.str.124, ptr noundef @.str.125, ptr noundef %118, ptr noundef @.str.126)
  %120 = icmp ne i32 %119, 0
  br i1 %120, label %122, label %121

121:                                              ; preds = %117
  br label %124

122:                                              ; preds = %117
  br label %123

123:                                              ; preds = %122, %100
  store i32 1, ptr %3, align 4, !tbaa !4
  br label %124

124:                                              ; preds = %123, %121, %116, %110, %99, %85, %80, %74, %57, %52, %46, %33, %28, %21, %14
  %125 = load ptr, ptr %5, align 8, !tbaa !13
  call void @BN_free(ptr noundef %125)
  %126 = load ptr, ptr %6, align 8, !tbaa !13
  call void @BN_free(ptr noundef %126)
  %127 = load ptr, ptr %7, align 8, !tbaa !13
  call void @BN_free(ptr noundef %127)
  %128 = load ptr, ptr %8, align 8, !tbaa !13
  call void @BN_free(ptr noundef %128)
  %129 = load ptr, ptr %4, align 8, !tbaa !25
  call void @CRYPTO_free(ptr noundef %129, ptr noundef @.str.17, i32 noundef 3273)
  %130 = load i32, ptr %3, align 4, !tbaa !4
  call void @llvm.lifetime.end.p0(i64 8, ptr %8) #7
  call void @llvm.lifetime.end.p0(i64 8, ptr %7) #7
  call void @llvm.lifetime.end.p0(i64 8, ptr %6) #7
  call void @llvm.lifetime.end.p0(i64 8, ptr %5) #7
  call void @llvm.lifetime.end.p0(i64 8, ptr %4) #7
  call void @llvm.lifetime.end.p0(i64 4, ptr %3) #7
  ret i32 %130
}