; Function Attrs: nounwind uwtable
define internal range(i32 0, 2) i32 @test_mod_exp_alias(i32 noundef %0) #1 {
  %2 = alloca ptr, align 8
  %3 = alloca ptr, align 8
  %4 = alloca ptr, align 8
  call void @llvm.lifetime.start.p0(i64 8, ptr nonnull %2) #8
  store ptr null, ptr %2, align 8, !tbaa !21
  call void @llvm.lifetime.start.p0(i64 8, ptr nonnull %3) #8
  store ptr null, ptr %3, align 8, !tbaa !21
  call void @llvm.lifetime.start.p0(i64 8, ptr nonnull %4) #8
  store ptr null, ptr %4, align 8, !tbaa !21
  %5 = call i32 @BN_dec2bn(ptr noundef nonnull %2, ptr noundef nonnull @.str.117) #8
  %6 = icmp ne i32 %5, 0
  %7 = zext i1 %6 to i32
  %8 = call i32 @test_true(ptr noundef nonnull @.str.17, i32 noundef 3219, ptr noundef nonnull @.str.116, i32 noundef %7) #8
  %.not = icmp eq i32 %8, 0
  br i1 %.not, label %67, label %9

9:                                                ; preds = %1
  %10 = call i32 @BN_dec2bn(ptr noundef nonnull %3, ptr noundef nonnull @.str.119) #8
  %11 = icmp ne i32 %10, 0
  %12 = zext i1 %11 to i32
  %13 = call i32 @test_true(ptr noundef nonnull @.str.17, i32 noundef 3221, ptr noundef nonnull @.str.118, i32 noundef %12) #8
  %.not18 = icmp eq i32 %13, 0
  br i1 %.not18, label %67, label %14

14:                                               ; preds = %9
  %15 = call i32 @BN_dec2bn(ptr noundef nonnull %4, ptr noundef nonnull @.str.121) #8
  %16 = icmp ne i32 %15, 0
  %17 = zext i1 %16 to i32
  %18 = call i32 @test_true(ptr noundef nonnull @.str.17, i32 noundef 3223, ptr noundef nonnull @.str.120, i32 noundef %17) #8
  %.not19 = icmp eq i32 %18, 0
  br i1 %.not19, label %67, label %19

19:                                               ; preds = %14
  %20 = call ptr @BN_new() #8
  %21 = call i32 @test_ptr(ptr noundef nonnull @.str.17, i32 noundef 3225, ptr noundef nonnull @.str.108, ptr noundef %20) #8
  %.not20 = icmp eq i32 %21, 0
  br i1 %.not20, label %67, label %22

22:                                               ; preds = %19
  %23 = icmp eq i32 %0, 0
  %24 = select i1 %23, ptr @BN_mod_exp_simple, ptr @BN_mod_exp_recp
  %25 = load ptr, ptr %2, align 8, !tbaa !21
  %26 = load ptr, ptr %3, align 8, !tbaa !21
  %27 = load ptr, ptr %4, align 8, !tbaa !21
  %28 = load ptr, ptr @ctx, align 8, !tbaa !6
  %29 = call i32 %24(ptr noundef %20, ptr noundef %25, ptr noundef %26, ptr noundef %27, ptr noundef %28) #8, !callees !23
  %30 = call i32 @test_int_eq(ptr noundef nonnull @.str.17, i32 noundef 3229, ptr noundef nonnull @.str.122, ptr noundef nonnull @.str.123, i32 noundef %29, i32 noundef 1) #8
  %.not21 = icmp eq i32 %30, 0
  br i1 %.not21, label %67, label %31

31:                                               ; preds = %22
  %32 = call ptr @BN_bn2dec(ptr noundef %20) #8
  %33 = call i32 @test_ptr_ne(ptr noundef nonnull @.str.17, i32 noundef 3231, ptr noundef nonnull @.str.111, ptr noundef nonnull @.str.112, ptr noundef %32, ptr noundef null) #8
  %.not22 = icmp eq i32 %33, 0
  br i1 %.not22, label %67, label %34

34:                                               ; preds = %31
  %35 = call i32 @test_str_eq(ptr noundef nonnull @.str.17, i32 noundef 3233, ptr noundef nonnull @.str.124, ptr noundef nonnull @.str.125, ptr noundef %32, ptr noundef nonnull @.str.126) #8
  %.not23 = icmp eq i32 %35, 0
  br i1 %.not23, label %67, label %36

36:                                               ; preds = %34
  call void @CRYPTO_free(ptr noundef %32, ptr noundef nonnull @.str.17, i32 noundef 3236) #8
  %37 = load ptr, ptr %3, align 8, !tbaa !21
  %38 = call ptr @BN_copy(ptr noundef %20, ptr noundef %37) #8
  %39 = load ptr, ptr %2, align 8, !tbaa !21
  %40 = load ptr, ptr %4, align 8, !tbaa !21
  %41 = load ptr, ptr @ctx, align 8, !tbaa !6
  %42 = call i32 %24(ptr noundef %20, ptr noundef %39, ptr noundef %20, ptr noundef %40, ptr noundef %41) #8, !callees !23
  %43 = call i32 @test_int_eq(ptr noundef nonnull @.str.17, i32 noundef 3243, ptr noundef nonnull @.str.127, ptr noundef nonnull @.str.123, i32 noundef %42, i32 noundef 1) #8
  %.not24 = icmp eq i32 %43, 0
  br i1 %.not24, label %67, label %44

44:                                               ; preds = %36
  %45 = call ptr @BN_bn2dec(ptr noundef %20) #8
  %46 = call i32 @test_ptr_ne(ptr noundef nonnull @.str.17, i32 noundef 3245, ptr noundef nonnull @.str.111, ptr noundef nonnull @.str.112, ptr noundef %45, ptr noundef null) #8
  %.not25 = icmp eq i32 %46, 0
  br i1 %.not25, label %67, label %47

47:                                               ; preds = %44
  %48 = call i32 @test_str_eq(ptr noundef nonnull @.str.17, i32 noundef 3247, ptr noundef nonnull @.str.124, ptr noundef nonnull @.str.125, ptr noundef %45, ptr noundef nonnull @.str.126) #8
  %.not26 = icmp eq i32 %48, 0
  br i1 %.not26, label %67, label %49

49:                                               ; preds = %47
  call void @CRYPTO_free(ptr noundef %45, ptr noundef nonnull @.str.17, i32 noundef 3250) #8
  %50 = load ptr, ptr %4, align 8, !tbaa !21
  %51 = load ptr, ptr %2, align 8, !tbaa !21
  %52 = load ptr, ptr %3, align 8, !tbaa !21
  %53 = load ptr, ptr @ctx, align 8, !tbaa !6
  br i1 %23, label %54, label %57

54:                                               ; preds = %49
  %55 = call i32 @BN_mod_exp_simple(ptr noundef %50, ptr noundef %51, ptr noundef %52, ptr noundef %50, ptr noundef %53) #8
  %56 = call i32 @test_int_eq(ptr noundef nonnull @.str.17, i32 noundef 3255, ptr noundef nonnull @.str.128, ptr noundef nonnull @.str.69, i32 noundef %55, i32 noundef 0) #8
  %.not30 = icmp eq i32 %56, 0
  br i1 %.not30, label %67, label %66

57:                                               ; preds = %49
  %58 = call i32 @BN_mod_exp_recp(ptr noundef %50, ptr noundef %51, ptr noundef %52, ptr noundef %50, ptr noundef %53) #8
  %59 = call i32 @test_int_eq(ptr noundef nonnull @.str.17, i32 noundef 3258, ptr noundef nonnull @.str.129, ptr noundef nonnull @.str.123, i32 noundef %58, i32 noundef 1) #8
  %.not27 = icmp eq i32 %59, 0
  br i1 %.not27, label %67, label %60

60:                                               ; preds = %57
  %61 = load ptr, ptr %4, align 8, !tbaa !21
  %62 = call ptr @BN_bn2dec(ptr noundef %61) #8
  %63 = call i32 @test_ptr_ne(ptr noundef nonnull @.str.17, i32 noundef 3260, ptr noundef nonnull @.str.130, ptr noundef nonnull @.str.112, ptr noundef %62, ptr noundef null) #8
  %.not28 = icmp eq i32 %63, 0
  br i1 %.not28, label %67, label %64

64:                                               ; preds = %60
  %65 = call i32 @test_str_eq(ptr noundef nonnull @.str.17, i32 noundef 3262, ptr noundef nonnull @.str.124, ptr noundef nonnull @.str.125, ptr noundef %62, ptr noundef nonnull @.str.126) #8
  %.not29 = icmp eq i32 %65, 0
  br i1 %.not29, label %67, label %66

66:                                               ; preds = %64, %54
  %.1 = phi ptr [ null, %54 ], [ %62, %64 ]
  br label %67

67:                                               ; preds = %64, %60, %57, %54, %47, %44, %36, %34, %31, %22, %19, %14, %9, %1, %66
  %.017 = phi i32 [ 1, %66 ], [ 0, %54 ], [ 0, %64 ], [ 0, %60 ], [ 0, %57 ], [ 0, %47 ], [ 0, %44 ], [ 0, %36 ], [ 0, %34 ], [ 0, %31 ], [ 0, %22 ], [ 0, %19 ], [ 0, %14 ], [ 0, %9 ], [ 0, %1 ]
  %.016 = phi ptr [ %.1, %66 ], [ null, %54 ], [ %62, %64 ], [ %62, %60 ], [ null, %57 ], [ %45, %47 ], [ %45, %44 ], [ null, %36 ], [ %32, %34 ], [ %32, %31 ], [ null, %22 ], [ null, %19 ], [ null, %14 ], [ null, %9 ], [ null, %1 ]
  %.0 = phi ptr [ %20, %66 ], [ %20, %54 ], [ %20, %64 ], [ %20, %60 ], [ %20, %57 ], [ %20, %47 ], [ %20, %44 ], [ %20, %36 ], [ %20, %34 ], [ %20, %31 ], [ %20, %22 ], [ %20, %19 ], [ null, %14 ], [ null, %9 ], [ null, %1 ]
  %68 = load ptr, ptr %2, align 8, !tbaa !21
  call void @BN_free(ptr noundef %68) #8
  %69 = load ptr, ptr %3, align 8, !tbaa !21
  call void @BN_free(ptr noundef %69) #8
  %70 = load ptr, ptr %4, align 8, !tbaa !21
  call void @BN_free(ptr noundef %70) #8
  call void @BN_free(ptr noundef %.0) #8
  call void @CRYPTO_free(ptr noundef %.016, ptr noundef nonnull @.str.17, i32 noundef 3273) #8
  call void @llvm.lifetime.end.p0(i64 8, ptr nonnull %4) #8
  call void @llvm.lifetime.end.p0(i64 8, ptr nonnull %3) #8
  call void @llvm.lifetime.end.p0(i64 8, ptr nonnull %2) #8
  ret i32 %.017
}